; Function Attrs: null_pointer_is_valid sspstrong uwtable
define internal i32 @dissect_p1_LocalIdentifier(i1 noundef zeroext %0, ptr noundef %1, i32 noundef %2, ptr noundef %3, ptr noundef %4, i32 noundef %5) #0 {
  %7 = alloca ptr, align 8
  call void @llvm.lifetime.start.p0(i64 8, ptr nonnull %7) #5
  store ptr null, ptr %7, align 8
  %8 = getelementptr inbounds nuw i8, ptr %3, i64 120
  %9 = getelementptr inbounds nuw i8, ptr %3, i64 136
  %10 = load ptr, ptr %9, align 8
  %11 = call i32 @dissect_ber_constrained_restricted_string(i1 noundef zeroext %0, i32 noundef 22, ptr noundef %3, ptr noundef %4, ptr noundef %1, i32 noundef %2, i32 noundef 1, i32 noundef 32, i32 noundef %5, ptr noundef nonnull %7)
  %12 = load ptr, ptr %7, align 8
  %.not = icmp eq ptr %12, null
  br i1 %.not, label %38, label %13

13:                                               ; preds = %6
  %.not15 = icmp eq ptr %10, null
  br i1 %.not15, label %25, label %14

14:                                               ; preds = %13
  %15 = load i8, ptr %10, align 8, !range !6, !noundef !7
  %16 = trunc nuw i8 %15 to i1
  br i1 %16, label %17, label %25

17:                                               ; preds = %14
  %18 = load ptr, ptr %8, align 8
  %19 = getelementptr inbounds nuw i8, ptr %3, i64 16
  %20 = load ptr, ptr %19, align 8
  %21 = getelementptr inbounds nuw i8, ptr %20, i64 408
  %22 = load ptr, ptr %21, align 8
  %23 = call i32 @tvb_reported_length(ptr noundef nonnull %12)
  %24 = call ptr @tvb_format_text(ptr noundef %22, ptr noundef nonnull %12, i32 noundef 0, i32 noundef %23)
  call void (ptr, ptr, ...) @proto_item_append_text(ptr noundef %18, ptr noundef nonnull @.str.1674, ptr noundef %24)
  br label %25

25:                                               ; preds = %17, %14, %13
  %26 = load i32, ptr @hf_p1_subject_identifier, align 4
  %27 = icmp eq i32 %5, %26
  br i1 %27, label %28, label %38

28:                                               ; preds = %25
  %29 = getelementptr inbounds nuw i8, ptr %3, i64 16
  %30 = load ptr, ptr %29, align 8
  %31 = getelementptr inbounds nuw i8, ptr %30, i64 8
  %32 = load ptr, ptr %31, align 8
  %33 = getelementptr inbounds nuw i8, ptr %30, i64 408
  %34 = load ptr, ptr %33, align 8
  %35 = load ptr, ptr %7, align 8
  %36 = call i32 @tvb_reported_length(ptr noundef %35)
  %37 = call ptr @tvb_format_text(ptr noundef %34, ptr noundef %35, i32 noundef 0, i32 noundef %36)
  call void (ptr, i32, ptr, ...) @col_append_fstr(ptr noundef %32, i32 noundef 25, ptr noundef nonnull @.str.1674, ptr noundef %37)
  br label %38

38:                                               ; preds = %25, %28, %6
  call void @llvm.lifetime.end.p0(i64 8, ptr nonnull %7) #5
  ret i32 %11
}